(lp0
S'poi'
p1
aS'salary'
p2
aS'deferral_payments'
p3
aS'total_payments'
p4
aS'bonus'
p5
aS'shared_receipt_with_poi'
p6
aS'total_stock_value'
p7
aS'expenses'
p8
aS'from_this_person_to_poi'
p9
aS'deferred_income'
p10
aS'long_term_incentive'
p11
aS'from_poi_to_this_person'
p12
aS'monetary_incentive'
p13
aS'poi_contact'
p14
a.